target datalayout = "e-m:e-p270:32:32-p271:32:32-p272:64:64-i64:64-i128:128-f80:128-n8:16:32:64-S128"
target triple = "x86_64-pc-linux-gnu"

; Function Attrs: mustprogress nounwind uwtable
define dso_local noundef ptr @_ZN4llvm16itanium_demangle19parse_discriminatorEPKcS2_(ptr noundef %0, ptr noundef %1) #0 {
  %3 = alloca ptr, align 8
  %4 = alloca ptr, align 8
  %5 = alloca ptr, align 8
  %6 = alloca ptr, align 8
  store ptr %0, ptr %3, align 8
  store ptr %1, ptr %4, align 8
  %7 = load ptr, ptr %3, align 8
  %8 = load ptr, ptr %4, align 8
  %9 = icmp ne ptr %7, %8
  br i1 %9, label %10, label %104

10:                                               ; preds = %2
  %11 = load ptr, ptr %3, align 8
  %12 = load i8, ptr %11, align 1
  %13 = sext i8 %12 to i32
  %14 = icmp eq i32 %13, 95
  br i1 %14, label %15, label %70

15:                                               ; preds = %10
  %16 = load ptr, ptr %3, align 8
  %17 = getelementptr inbounds i8, ptr %16, i64 1
  store ptr %17, ptr %5, align 8
  %18 = load ptr, ptr %5, align 8
  %19 = load ptr, ptr %4, align 8
  %20 = icmp ne ptr %18, %19
  br i1 %20, label %21, label %69

21:                                               ; preds = %15
  %22 = load ptr, ptr %5, align 8
  %23 = load i8, ptr %22, align 1
  %24 = sext i8 %23 to i32
  %25 = call i32 @isdigit(i32 noundef %24) #13
  %26 = icmp ne i32 %25, 0
  br i1 %26, label %27, label %30

27:                                               ; preds = %21
  %28 = load ptr, ptr %5, align 8
  %29 = getelementptr inbounds i8, ptr %28, i64 1
  store ptr %29, ptr %3, align 8
  br label %68

30:                                               ; preds = %21
  %31 = load ptr, ptr %5, align 8
  %32 = load i8, ptr %31, align 1
  %33 = sext i8 %32 to i32
  %34 = icmp eq i32 %33, 95
  br i1 %34, label %35, label %67

35:                                               ; preds = %30
  %36 = load ptr, ptr %5, align 8
  %37 = getelementptr inbounds i8, ptr %36, i32 1
  store ptr %37, ptr %5, align 8
  br label %38

38:                                               ; preds = %51, %35
  %39 = load ptr, ptr %5, align 8
  %40 = load ptr, ptr %4, align 8
  %41 = icmp ne ptr %39, %40
  br i1 %41, label %42, label %48

42:                                               ; preds = %38
  %43 = load ptr, ptr %5, align 8
  %44 = load i8, ptr %43, align 1
  %45 = sext i8 %44 to i32
  %46 = call i32 @isdigit(i32 noundef %45) #13
  %47 = icmp ne i32 %46, 0
  br label %48

48:                                               ; preds = %42, %38
  %49 = phi i1 [ false, %38 ], [ %47, %42 ]
  br i1 %49, label %50, label %54

50:                                               ; preds = %48
  br label %51

51:                                               ; preds = %50
  %52 = load ptr, ptr %5, align 8
  %53 = getelementptr inbounds i8, ptr %52, i32 1
  store ptr %53, ptr %5, align 8
  br label %38, !llvm.loop !4

54:                                               ; preds = %48
  %55 = load ptr, ptr %5, align 8
  %56 = load ptr, ptr %4, align 8
  %57 = icmp ne ptr %55, %56
  br i1 %57, label %58, label %66

58:                                               ; preds = %54
  %59 = load ptr, ptr %5, align 8
  %60 = load i8, ptr %59, align 1
  %61 = sext i8 %60 to i32
  %62 = icmp eq i32 %61, 95
  br i1 %62, label %63, label %66

63:                                               ; preds = %58
  %64 = load ptr, ptr %5, align 8
  %65 = getelementptr inbounds i8, ptr %64, i64 1
  store ptr %65, ptr %3, align 8
  br label %66

66:                                               ; preds = %63, %58, %54
  br label %67

67:                                               ; preds = %66, %30
  br label %68

68:                                               ; preds = %67, %27
  br label %69

69:                                               ; preds = %68, %15
  br label %103

70:                                               ; preds = %10
  %71 = load ptr, ptr %3, align 8
  %72 = load i8, ptr %71, align 1
  %73 = sext i8 %72 to i32
  %74 = call i32 @isdigit(i32 noundef %73) #13
  %75 = icmp ne i32 %74, 0
  br i1 %75, label %76, label %102

76:                                               ; preds = %70
  %77 = load ptr, ptr %3, align 8
  %78 = getelementptr inbounds i8, ptr %77, i64 1
  store ptr %78, ptr %6, align 8
  br label %79

79:                                               ; preds = %92, %76
  %80 = load ptr, ptr %6, align 8
  %81 = load ptr, ptr %4, align 8
  %82 = icmp ne ptr %80, %81
  br i1 %82, label %83, label %89

83:                                               ; preds = %79
  %84 = load ptr, ptr %6, align 8
  %85 = load i8, ptr %84, align 1
  %86 = sext i8 %85 to i32
  %87 = call i32 @isdigit(i32 noundef %86) #13
  %88 = icmp ne i32 %87, 0
  br label %89

89:                                               ; preds = %83, %79
  %90 = phi i1 [ false, %79 ], [ %88, %83 ]
  br i1 %90, label %91, label %95

91:                                               ; preds = %89
  br label %92

92:                                               ; preds = %91
  %93 = load ptr, ptr %6, align 8
  %94 = getelementptr inbounds i8, ptr %93, i32 1
  store ptr %94, ptr %6, align 8
  br label %79, !llvm.loop !6

95:                                               ; preds = %89
  %96 = load ptr, ptr %6, align 8
  %97 = load ptr, ptr %4, align 8
  %98 = icmp eq ptr %96, %97
  br i1 %98, label %99, label %101

99:                                               ; preds = %95
  %100 = load ptr, ptr %4, align 8
  store ptr %100, ptr %3, align 8
  br label %101

101:                                              ; preds = %99, %95
  br label %102

102:                                              ; preds = %101, %70
  br label %103

103:                                              ; preds = %102, %69
  br label %104

104:                                              ; preds = %103, %2
  %105 = load ptr, ptr %3, align 8
  ret ptr %105
}