; Function Attrs: mustprogress nofree norecurse nosync nounwind willreturn memory(argmem: read) uwtable
define dso_local noundef ptr @_ZN4llvm16itanium_demangle19parse_discriminatorEPKcS2_(ptr noundef readonly %0, ptr noundef readnone %1) local_unnamed_addr #0 {
  %.not = icmp eq ptr %0, %1
  br i1 %.not, label %.critedge45, label %3

3:                                                ; preds = %2
  %4 = load i8, ptr %0, align 1
  %5 = icmp eq i8 %4, 95
  br i1 %5, label %6, label %22

6:                                                ; preds = %3
  %7 = getelementptr inbounds i8, ptr %0, i64 1
  %.not39 = icmp eq ptr %7, %1
  br i1 %.not39, label %.critedge45, label %8

8:                                                ; preds = %6
  %9 = load i8, ptr %7, align 1
  %10 = sext i8 %9 to i32
  %isdigittmp40 = add nsw i32 %10, -48
  %isdigit41 = icmp ult i32 %isdigittmp40, 10
  br i1 %isdigit41, label %11, label %13

11:                                               ; preds = %8
  %12 = getelementptr inbounds i8, ptr %0, i64 2
  br label %.critedge45

13:                                               ; preds = %8
  %14 = icmp ne i8 %9, 95
  %15 = getelementptr inbounds i8, ptr %0, i64 2
  %.not4249 = icmp eq ptr %15, %1
  %or.cond = select i1 %14, i1 true, i1 %.not4249
  br i1 %or.cond, label %.critedge45, label %.lr.ph

.lr.ph:                                           ; preds = %13, %18
  %.03050 = phi ptr [ %19, %18 ], [ %15, %13 ]
  %16 = load i8, ptr %.03050, align 1
  %17 = sext i8 %16 to i32
  %isdigittmp43 = add nsw i32 %17, -48
  %isdigit44 = icmp ult i32 %isdigittmp43, 10
  br i1 %isdigit44, label %18, label %.critedge

18:                                               ; preds = %.lr.ph
  %19 = getelementptr inbounds i8, ptr %.03050, i64 1
  %.not42 = icmp eq ptr %19, %1
  br i1 %.not42, label %.critedge45, label %.lr.ph, !llvm.loop !4

.critedge:                                        ; preds = %.lr.ph
  %20 = icmp eq i8 %16, 95
  %21 = getelementptr inbounds i8, ptr %.03050, i64 1
  %spec.select = select i1 %20, ptr %21, ptr %0
  br label %.critedge45

22:                                               ; preds = %3
  %23 = sext i8 %4 to i32
  %isdigittmp = add nsw i32 %23, -48
  %isdigit = icmp ult i32 %isdigittmp, 10
  br i1 %isdigit, label %.preheader, label %.critedge45

.preheader:                                       ; preds = %22, %24
  %.pn = phi ptr [ %.0, %24 ], [ %0, %22 ]
  %.0 = getelementptr inbounds i8, ptr %.pn, i64 1
  %.not36 = icmp eq ptr %.0, %1
  br i1 %.not36, label %.critedge45, label %24

24:                                               ; preds = %.preheader
  %25 = load i8, ptr %.0, align 1
  %26 = sext i8 %25 to i32
  %isdigittmp37 = add nsw i32 %26, -48
  %isdigit38 = icmp ult i32 %isdigittmp37, 10
  br i1 %isdigit38, label %.preheader, label %.critedge45, !llvm.loop !6

.critedge45:                                      ; preds = %24, %.preheader, %18, %.critedge, %11, %13, %6, %22, %2
  %.031 = phi ptr [ %12, %11 ], [ %0, %13 ], [ %0, %6 ], [ %0, %22 ], [ %0, %2 ], [ %spec.select, %.critedge ], [ %0, %18 ], [ %0, %24 ], [ %1, %.preheader ]
  ret ptr %.031
}